(dp0
S'pcr_4'
p1
(lp2
S'---+'
p3
aS'-+-+'
p4
aS'---+'
p5
aS'-+-+'
p6
aS'-+0+'
p7
aS'-+++'
p8
aS'--++'
p9
asS'rotl_10'
p10
(lp11
S'-+-+'
p12
aS'-0-+'
p13
aS'-+-+'
p14
aS'-0-+'
p15
aS'-+-+'
p16
aS'-0-+'
p17
aS'-+-+'
p18
aS'-0-+'
p19
aS'00-+'
p20
aS'0--+'
p21
asS'rotl_11'
p22
(lp23
S'-+-+'
p24
aS'-0-+'
p25
aS'-+-+'
p26
aS'-0-+'
p27
aS'---+'
p28
aS'---0'
p29
aS'-0-0'
p30
aS'-0-+'
p31
aS'---+'
p32
aS'-0-+'
p33
aS'-+-+'
p34
aS'-0-+'
p35
aS'---+'
p36
aS'---0'
p37
aS'-0-0'
p38
aS'-0--'
p39
aS'00--'
p40
aS'00-0'
p41
aS'00-+'
p42
aS'0--+'
p43
aS'0--0'
p44
aS'00-0'
p45
aS'0+--'
p46
aS'+0-0'
p47
aS'+0--'
p48
aS'+0-0'
p49
aS'+--0'
p50
aS'+--+'
p51
aS'+--0'
p52
aS'+--+'
p53
aS'+0-+'
p54
aS'+--+'
p55
aS'+0-+'
p56
aS'+--+'
p57
asS'rotl_12'
p58
(lp59
S'-0-+'
p60
aS'-+-+'
p61
aS'-0-+'
p62
aS'-+-+'
p63
aS'-0-+'
p64
aS'-+-+'
p65
aS'-0-+'
p66
aS'-+-+'
p67
aS'-0-+'
p68
aS'00-+'
p69
aS'0--+'
p70
aS'00-+'
p71
asS'pbl_10'
p72
(lp73
S'----'
p74
aS'0---'
p75
aS'+---'
p76
aS'+0--'
p77
aS'++--'
p78
aS'++0-'
p79
aS'+++-'
p80
aS'+-+-'
p81
asS'pbl_11'
p82
(lp83
S'----'
p84
aS'0---'
p85
aS'+0--'
p86
aS'++--'
p87
aS'++0-'
p88
aS'+-0-'
p89
aS'+-+-'
p90
aS'+-++'
p91
aS'+-+0'
p92
aS'+-++'
p93
aS'+-0+'
p94
asS'pbl_12'
p95
(lp96
S'---+'
p97
aS'---0'
p98
aS'----'
p99
aS'---0'
p100
aS'----'
p101
aS'+---'
p102
aS'++--'
p103
aS'++0-'
p104
aS'+++-'
p105
asS'pcr_1'
p106
(lp107
S'0--+'
p108
aS'---+'
p109
aS'-0-+'
p110
aS'-+-+'
p111
aS'-+0+'
p112
asS'rotr_10'
p113
(lp114
S'-++-'
p115
aS'-++0'
p116
aS'-+++'
p117
aS'-++0'
p118
aS'-++-'
p119
aS'-++0'
p120
aS'-++-'
p121
aS'-++0'
p122
aS'-++-'
p123
asS'rotr_11'
p124
(lp125
S'-+00'
p126
aS'-+0+'
p127
aS'-+00'
p128
aS'-+0-'
p129
aS'-+00'
p130
aS'-+0+'
p131
aS'-+00'
p132
aS'-000'
p133
aS'-00+'
p134
aS'-0++'
p135
aS'-+++'
p136
aS'-++0'
p137
aS'-++-'
p138
aS'-0+-'
p139
aS'-0+0'
p140
aS'-++0'
p141
aS'-+++'
p142
aS'-++0'
p143
aS'-++-'
p144
aS'-0+-'
p145
aS'-++-'
p146
aS'-0+-'
p147
aS'-++-'
p148
aS'-++0'
p149
aS'-++-'
p150
aS'-0+-'
p151
aS'-++-'
p152
asS'pbr_8'
p153
(lp154
S'---+'
p155
aS'--0+'
p156
aS'--++'
p157
aS'-0++'
p158
aS'--++'
p159
aS'++++'
p160
asS'u_12'
p161
(lp162
S'0-0+'
p163
aS'0+0+'
p164
asS'u_11'
p165
(lp166
S'-+-+'
p167
aS'---+'
p168
aS'---0'
p169
aS'-0-+'
p170
aS'---+'
p171
aS'---0'
p172
aS'---+'
p173
aS'---0'
p174
aS'---+'
p175
aS'---0'
p176
aS'---+'
p177
aS'---0'
p178
aS'-0-+'
p179
aS'----'
p180
aS'---0'
p181
aS'----'
p182
aS'0--0'
p183
aS'0--+'
p184
aS'00-+'
p185
aS'0--+'
p186
aS'00-+'
p187
aS'0--+'
p188
aS'00-+'
p189
asS'u_10'
p190
(lp191
S'0000'
p192
asS'pbr_4'
p193
(lp194
S'---+'
p195
aS'--0+'
p196
aS'--++'
p197
aS'-+++'
p198
aS'--++'
p199
aS'0+++'
p200
aS'++++'
p201
aS'+-+-'
p202
aS'0-+-'
p203
aS'--+-'
p204
aS'-0+-'
p205
asS'pbr_5'
p206
(lp207
S'---+'
p208
aS'--0+'
p209
aS'--++'
p210
aS'0-++'
p211
aS'++++'
p212
aS'+-++'
p213
aS'+-+-'
p214
aS'+++-'
p215
asS'pbr_6'
p216
(lp217
S'---+'
p218
aS'--0+'
p219
aS'--++'
p220
aS'-0++'
p221
aS'--++'
p222
aS'0+++'
p223
aS'++++'
p224
asS'pbr_7'
p225
(lp226
S'---+'
p227
aS'--0+'
p228
aS'--++'
p229
aS'-+++'
p230
aS'--++'
p231
aS'++++'
p232
aS'+++0'
p233
asS'pbr_1'
p234
(lp235
S'---+'
p236
aS'--0+'
p237
aS'--++'
p238
aS'0-++'
p239
aS'+-++'
p240
aS'+0++'
p241
aS'+-++'
p242
aS'++++'
p243
aS'+-++'
p244
aS'++++'
p245
aS'+++-'
p246
asS'pbr_2'
p247
(lp248
S'---+'
p249
aS'--0+'
p250
aS'--++'
p251
aS'++++'
p252
aS'+-+-'
p253
asS'pbr_3'
p254
(lp255
S'---+'
p256
aS'--0+'
p257
aS'--++'
p258
aS'0-++'
p259
aS'+-++'
p260
aS'++++'
p261
asS'pcl_5'
p262
(lp263
S'----'
p264
aS'-+--'
p265
aS'----'
p266
aS'-+--'
p267
aS'----'
p268
aS'-+--'
p269
aS'0+--'
p270
aS'++--'
p271
aS'+---'
p272
aS'+++-'
p273
asS'pcl_4'
p274
(lp275
S'----'
p276
aS'-0--'
p277
aS'----'
p278
aS'-0--'
p279
aS'-+--'
p280
aS'0+--'
p281
aS'++--'
p282
aS'+---'
p283
asS'pcl_7'
p284
(lp285
S'-0--'
p286
aS'----'
p287
aS'-0--'
p288
aS'----'
p289
aS'-+--'
p290
aS'----'
p291
aS'-+--'
p292
aS'0+--'
p293
aS'++--'
p294
aS'++-0'
p295
aS'++-+'
p296
aS'++-0'
p297
aS'++-+'
p298
asS'pcl_6'
p299
(lp300
S'----'
p301
aS'-+--'
p302
aS'----'
p303
aS'-0--'
p304
aS'----'
p305
aS'-0--'
p306
aS'-+--'
p307
aS'0+--'
p308
aS'++--'
p309
aS'++-+'
p310
asS'pcl_1'
p311
(lp312
S'-+--'
p313
aS'-0--'
p314
aS'-+--'
p315
aS'----'
p316
aS'-0--'
p317
aS'----'
p318
aS'-0--'
p319
aS'----'
p320
aS'-0--'
p321
aS'-+--'
p322
aS'0+--'
p323
aS'++--'
p324
aS'++-0'
p325
asS'pcl_3'
p326
(lp327
S'----'
p328
aS'-+--'
p329
aS'----'
p330
aS'-0--'
p331
aS'----'
p332
aS'-+--'
p333
aS'-0--'
p334
aS'-+--'
p335
aS'0+--'
p336
aS'++--'
p337
aS'+0-+'
p338
aS'+---'
p339
aS'++0-'
p340
aS'+-++'
p341
aS'+-+0'
p342
asS'pcl_2'
p343
(lp344
S'-+--'
p345
aS'----'
p346
aS'-0--'
p347
aS'----'
p348
aS'-0--'
p349
aS'----'
p350
aS'-0--'
p351
aS'-+--'
p352
aS'0+--'
p353
aS'++-0'
p354
aS'++--'
p355
asS'pcl_8'
p356
(lp357
S'-+--'
p358
aS'----'
p359
aS'-0--'
p360
aS'-+--'
p361
aS'0+--'
p362
aS'++--'
p363
aS'++-0'
p364
aS'++-+'
p365
asS'pcr_11'
p366
(lp367
S'---+'
p368
aS'-0-+'
p369
aS'-+-+'
p370
asS'rotr_1'
p371
(lp372
S'-++-'
p373
aS'-++0'
p374
aS'-+++'
p375
aS'-++0'
p376
aS'-++-'
p377
aS'-++0'
p378
aS'-+++'
p379
aS'-++-'
p380
aS'-++0'
p381
aS'-++-'
p382
aS'-++0'
p383
aS'-++-'
p384
aS'-++0'
p385
aS'-++-'
p386
asS'rotr_2'
p387
(lp388
S'-+00'
p389
aS'-+0+'
p390
aS'-+00'
p391
aS'-++0'
p392
aS'-++-'
p393
aS'-+0-'
p394
aS'-+00'
p395
aS'-+0+'
p396
aS'-+00'
p397
aS'-+++'
p398
aS'-++0'
p399
aS'-++-'
p400
aS'-++0'
p401
aS'-0+0'
p402
aS'-++0'
p403
aS'-+++'
p404
aS'-++0'
p405
aS'-++-'
p406
aS'-++0'
p407
aS'-++-'
p408
aS'-++0'
p409
aS'-++-'
p410
aS'-0+-'
p411
aS'-++-'
p412
asS'rotr_3'
p413
(lp414
S'-++-'
p415
aS'-++0'
p416
aS'-++-'
p417
aS'-++0'
p418
aS'-++-'
p419
asS'rotr_4'
p420
(lp421
S'-++-'
p422
aS'-++0'
p423
aS'-++-'
p424
aS'-++0'
p425
aS'-++-'
p426
aS'-++0'
p427
aS'-++-'
p428
aS'-+0-'
p429
aS'-+00'
p430
aS'-++0'
p431
aS'-++-'
p432
aS'-++0'
p433
aS'-+++'
p434
aS'-++0'
p435
aS'-+++'
p436
aS'-++-'
p437
aS'-++0'
p438
asS'rotr_5'
p439
(lp440
S'-+00'
p441
aS'-++0'
p442
aS'-++-'
p443
aS'-+0-'
p444
aS'-+00'
p445
aS'-++0'
p446
aS'-++-'
p447
aS'-++0'
p448
aS'-+++'
p449
aS'-++0'
p450
aS'-++-'
p451
aS'-++0'
p452
aS'-++-'
p453
aS'-++0'
p454
aS'-++-'
p455
asS'rotr_6'
p456
(lp457
S'-+00'
p458
aS'-+0+'
p459
aS'-++0'
p460
aS'-++-'
p461
aS'-++0'
p462
aS'-+++'
p463
aS'-++0'
p464
aS'-+++'
p465
aS'-++0'
p466
aS'-+++'
p467
aS'-++0'
p468
aS'-++-'
p469
aS'-++0'
p470
aS'-++-'
p471
aS'-++0'
p472
aS'-++-'
p473
aS'-++0'
p474
aS'-++-'
p475
asS'rotr_7'
p476
(lp477
S'-+00'
p478
aS'-+0-'
p479
aS'-+00'
p480
aS'-+0+'
p481
aS'-+00'
p482
aS'-+0+'
p483
aS'-+++'
p484
aS'-++0'
p485
aS'-++-'
p486
aS'-++0'
p487
aS'-+++'
p488
aS'-++0'
p489
aS'-++-'
p490
aS'-0+-'
p491
aS'-++-'
p492
aS'-++0'
p493
aS'-++-'
p494
aS'-++0'
p495
asS'rotr_8'
p496
(lp497
S'-+00'
p498
aS'-+0+'
p499
aS'-+00'
p500
aS'-+0-'
p501
aS'-+00'
p502
aS'-+0+'
p503
aS'-++0'
p504
aS'-+++'
p505
aS'-++0'
p506
aS'-++-'
p507
aS'-++0'
p508
aS'-++-'
p509
aS'-++0'
p510
aS'-++-'
p511
aS'-++0'
p512
aS'-++-'
p513
asS'pcr_10'
p514
(lp515
S'0--+'
p516
aS'---+'
p517
aS'-0-+'
p518
aS'-+-+'
p519
aS'-+0+'
p520
asS'pbr_12'
p521
(lp522
S'---+'
p523
aS'--0+'
p524
aS'--++'
p525
aS'-+++'
p526
aS'--++'
p527
aS'++++'
p528
asS'pbr_10'
p529
(lp530
S'---+'
p531
aS'--0+'
p532
aS'--++'
p533
aS'-+++'
p534
aS'0+++'
p535
aS'++++'
p536
asS'pbr_11'
p537
(lp538
S'---+'
p539
aS'--0+'
p540
aS'--++'
p541
aS'0+++'
p542
aS'++++'
p543
asS'rotl_2'
p544
(lp545
S'-+-+'
p546
aS'-0-+'
p547
aS'-+-+'
p548
aS'-0-+'
p549
aS'-+-+'
p550
aS'-0-+'
p551
aS'-+-+'
p552
aS'-0-+'
p553
aS'-+-+'
p554
aS'-0-+'
p555
aS'-+-+'
p556
aS'---+'
p557
aS'-0-+'
p558
aS'00-+'
p559
aS'0--+'
p560
aS'00-+'
p561
asS'rotl_3'
p562
(lp563
S'-+-+'
p564
aS'-0-+'
p565
aS'-+-+'
p566
aS'-0-+'
p567
aS'-+-+'
p568
aS'-0-+'
p569
aS'-+-+'
p570
aS'-0-+'
p571
aS'-+-+'
p572
aS'-0-+'
p573
aS'-+-+'
p574
aS'-0-+'
p575
aS'-+-+'
p576
aS'---+'
p577
aS'-0-+'
p578
aS'-+-+'
p579
aS'-0-+'
p580
aS'0+-+'
p581
aS'00-+'
p582
asS'rotl_1'
p583
(lp584
S'-+-+'
p585
aS'-0-+'
p586
aS'-+-+'
p587
aS'-0-+'
p588
aS'-+-+'
p589
aS'-0-+'
p590
aS'-+-+'
p591
aS'-0-+'
p592
aS'---+'
p593
asS'rotl_6'
p594
(lp595
S'-+-+'
p596
aS'-0-+'
p597
aS'---+'
p598
aS'-0-+'
p599
aS'-+-+'
p600
aS'-0-+'
p601
aS'-0-0'
p602
aS'-0-+'
p603
aS'---+'
p604
aS'-0-+'
p605
aS'---+'
p606
aS'-0-+'
p607
aS'-+-+'
p608
aS'0+-+'
p609
aS'00-+'
p610
aS'0--+'
p611
aS'0--0'
p612
aS'+--0'
p613
aS'+--+'
p614
aS'+--0'
p615
aS'+0-+'
p616
aS'+--+'
p617
asS'rotl_7'
p618
(lp619
S'-0-+'
p620
aS'-+-+'
p621
aS'-0-+'
p622
aS'---+'
p623
aS'-0-+'
p624
aS'-+-+'
p625
aS'-0-+'
p626
aS'-+-+'
p627
aS'---+'
p628
aS'----'
p629
aS'-+-+'
p630
aS'00-+'
p631
aS'00-0'
p632
aS'00-+'
p633
aS'0--+'
p634
aS'00-+'
p635
aS'+0-+'
p636
aS'+--+'
p637
asS'rotl_4'
p638
(lp639
S'-+-+'
p640
aS'-0-+'
p641
aS'-+-+'
p642
aS'-0-+'
p643
aS'-+-+'
p644
aS'-0-+'
p645
aS'---+'
p646
aS'-+-+'
p647
aS'---0'
p648
aS'----'
p649
aS'-0-+'
p650
asS'rotl_5'
p651
(lp652
S'-+-+'
p653
aS'-0-+'
p654
aS'-+-+'
p655
aS'-0-+'
p656
aS'---+'
p657
aS'-0-+'
p658
aS'-+-+'
p659
aS'-0-+'
p660
aS'-+-+'
p661
aS'-0-+'
p662
aS'---+'
p663
aS'-0-+'
p664
aS'---+'
p665
aS'-0-+'
p666
aS'00-+'
p667
aS'0--+'
p668
aS'00-+'
p669
asS'pcl_11'
p670
(lp671
S'----'
p672
aS'-+--'
p673
aS'-0--'
p674
aS'----'
p675
aS'-0--'
p676
aS'-+--'
p677
aS'0+--'
p678
aS'++--'
p679
aS'++-0'
p680
asS'rotl_8'
p681
(lp682
S'-+-+'
p683
aS'-0-0'
p684
aS'-+-0'
p685
aS'-+-+'
p686
aS'-0-+'
p687
aS'-+-+'
p688
aS'-0-+'
p689
aS'-+-+'
p690
aS'-+--'
p691
aS'0+--'
p692
aS'++--'
p693
aS'+--0'
p694
aS'+--+'
p695
aS'++--'
p696
aS'+---'
p697
aS'+--+'
p698
aS'-+--'
p699
aS'0--+'
p700
aS'---+'
p701
aS'-0-+'
p702
aS'-+-+'
p703
aS'-0-+'
p704
aS'---+'
p705
aS'-0-+'
p706
aS'00-+'
p707
aS'0+-+'
p708
aS'00-+'
p709
aS'0--+'
p710
asS'pcl_10'
p711
(lp712
S'-+--'
p713
aS'----'
p714
aS'-0--'
p715
aS'----'
p716
aS'-0--'
p717
aS'-+--'
p718
aS'0+--'
p719
aS'++--'
p720
asS'pbl_6'
p721
(lp722
S'---0'
p723
aS'----'
p724
aS'0---'
p725
aS'+---'
p726
aS'+0--'
p727
aS'++--'
p728
aS'++0-'
p729
aS'+++-'
p730
asS'pbl_7'
p731
(lp732
S'----'
p733
aS'0---'
p734
aS'+0--'
p735
aS'++--'
p736
aS'++0-'
p737
aS'+-+-'
p738
asS'pbl_4'
p739
(lp740
S'---0'
p741
aS'----'
p742
aS'0---'
p743
aS'+---'
p744
aS'+0--'
p745
aS'++--'
p746
aS'++0-'
p747
aS'+++-'
p748
aS'+-+-'
p749
asS'pbl_5'
p750
(lp751
S'----'
p752
aS'0---'
p753
aS'+---'
p754
aS'+0--'
p755
aS'++--'
p756
aS'++0-'
p757
asS'pbl_2'
p758
(lp759
S'----'
p760
aS'0---'
p761
aS'+---'
p762
aS'++--'
p763
aS'++0-'
p764
asS'pbl_3'
p765
(lp766
S'-0-+'
p767
aS'---+'
p768
aS'-+--'
p769
aS'0--+'
p770
aS'00-0'
p771
aS'00-+'
p772
aS'0--+'
p773
aS'0+--'
p774
aS'0--+'
p775
aS'00-+'
p776
aS'0--+'
p777
aS'00-+'
p778
aS'0+-0'
p779
aS'+--+'
p780
aS'++-+'
p781
aS'+--+'
p782
asS'pbl_1'
p783
(lp784
S'----'
p785
aS'0---'
p786
aS'+---'
p787
aS'+0--'
p788
aS'++--'
p789
aS'++0-'
p790
aS'+++-'
p791
aS'+-+-'
p792
aS'+-+0'
p793
aS'+-++'
p794
aS'+-+0'
p795
asS'pcr_7'
p796
(lp797
S'---+'
p798
aS'-+-+'
p799
aS'-+0+'
p800
asS'pcr_6'
p801
(lp802
S'---+'
p803
aS'-0-+'
p804
aS'-+-+'
p805
aS'-+0+'
p806
asS'pcr_5'
p807
(lp808
S'---+'
p809
aS'-0-+'
p810
aS'---+'
p811
aS'-+-+'
p812
asS'pcl_12'
p813
(lp814
S'----'
p815
aS'-0--'
p816
aS'----'
p817
aS'-0--'
p818
aS'-+--'
p819
aS'0+--'
p820
aS'++--'
p821
aS'++-+'
p822
asS'pcr_3'
p823
(lp824
S'-+-+'
p825
aS'---+'
p826
aS'-+-+'
p827
asS'pcr_2'
p828
(lp829
S'0--+'
p830
aS'---+'
p831
aS'-0-+'
p832
aS'-+-+'
p833
aS'-+0+'
p834
asS'pbl_8'
p835
(lp836
S'---+'
p837
aS'+-+-'
p838
aS'+-+0'
p839
aS'+-++'
p840
aS'+++-'
p841
aS'+-++'
p842
aS'+-+-'
p843
aS'+++-'
p844
aS'+-++'
p845
aS'+---'
p846
aS'+0--'
p847
aS'++--'
p848
aS'++0-'
p849
aS'+++-'
p850
asS'pcr_8'
p851
(lp852
S'---+'
p853
aS'-+-+'
p854
aS'-0-+'
p855
aS'-+-+'
p856
aS'-+0+'
p857
aS'--0+'
p858
aS'--++'
p859
asS'u_3'
p860
(lp861
S'0000'
p862
asS'u_2'
p863
(lp864
S'-+-+'
p865
aS'-0-+'
p866
aS'---+'
p867
aS'-0-+'
p868
aS'---0'
p869
aS'---+'
p870
aS'-0-+'
p871
aS'---+'
p872
aS'---0'
p873
aS'---+'
p874
aS'---0'
p875
aS'----'
p876
aS'---0'
p877
aS'0---'
p878
aS'0--0'
p879
aS'0---'
p880
aS'0--0'
p881
aS'00-+'
p882
aS'0--+'
p883
aS'00-+'
p884
asS'u_1'
p885
(lp886
S'0+0-'
p887
aS'0-0+'
p888
aS'0+0+'
p889
aS'0-0+'
p890
aS'0+0+'
p891
asS'u_7'
p892
(lp893
S'0-0-'
p894
aS'000-'
p895
aS'0+00'
p896
aS'0+0+'
p897
aS'0+00'
p898
aS'0+0+'
p899
asS'u_6'
p900
(lp901
S'0-0+'
p902
aS'0+0+'
p903
asS'u_5'
p904
(lp905
S'0000'
p906
asS'u_4'
p907
(lp908
S'0-0+'
p909
aS'0-00'
p910
aS'0-0+'
p911
aS'0-00'
p912
aS'0-0-'
p913
aS'0-00'
p914
aS'0-0+'
p915
aS'0-00'
p916
aS'0-0-'
p917
aS'0-00'
p918
aS'000+'
p919
aS'0+0+'
p920
aS'0+00'
p921
aS'0000'
p922
asS'u_8'
p923
(lp924
S'0-0-'
p925
aS'0+0-'
p926
as.